; Function Attrs: mustprogress uwtable
define internal noundef range(i32 0, 2) i32 @_ZN11flatbuffers12_GLOBAL__N_122KotlinKMPCodeGenerator12GenerateCodeERKNS_6ParserERKNSt7__cxx1112basic_stringIcSt11char_traitsIcESaIcEEESC_(ptr nonnull readnone align 8 captures(none) %0, ptr noundef nonnull align 8 dereferenceable(1920) %1, ptr noundef nonnull align 8 dereferenceable(32) %2, ptr noundef nonnull align 8 dereferenceable(32) %3) unnamed_addr #4 align 2 personality ptr @__gxx_personality_v0 {
  %5 = alloca %"class.flatbuffers::kotlin::KotlinKMPGenerator", align 8
  call void @llvm.lifetime.start.p0(i64 520, ptr nonnull %5) #26
  call void @_ZN11flatbuffers6kotlin18KotlinKMPGeneratorC2ERKNS_6ParserERKNSt7__cxx1112basic_stringIcSt11char_traitsIcESaIcEEESC_(ptr noundef nonnull align 8 dereferenceable(520) %5, ptr noundef nonnull align 8 dereferenceable(1920) %1, ptr noundef nonnull align 8 dereferenceable(32) %2, ptr noundef nonnull align 8 dereferenceable(32) %3)
  %6 = invoke noundef zeroext i1 @_ZN11flatbuffers6kotlin18KotlinKMPGenerator8generateEv(ptr noundef nonnull align 8 dereferenceable(520) %5)
          to label %7 unwind label %43

7:                                                ; preds = %4
  store ptr getelementptr inbounds nuw inrange(-16, 32) (i8, ptr @_ZTVN11flatbuffers6kotlin18KotlinKMPGeneratorE, i64 16), ptr %5, align 8, !tbaa !4
  %8 = getelementptr inbounds nuw i8, ptr %5, i64 128
  store ptr getelementptr inbounds nuw inrange(-16, 184) (i8, ptr @_ZTVN11flatbuffers5NamerE, i64 16), ptr %8, align 8, !tbaa !4
  %9 = getelementptr inbounds nuw i8, ptr %5, i64 472
  %10 = getelementptr inbounds nuw i8, ptr %5, i64 488
  %11 = load ptr, ptr %10, align 8, !tbaa !21
  invoke void @_ZNSt8_Rb_treeINSt7__cxx1112basic_stringIcSt11char_traitsIcESaIcEEES5_St9_IdentityIS5_ESt4lessIS5_ESaIS5_EE8_M_eraseEPSt13_Rb_tree_nodeIS5_E(ptr noundef nonnull align 8 dereferenceable(48) %9, ptr noundef %11)
          to label %_ZN11flatbuffers5NamerD2Ev.exit.i.i unwind label %12

12:                                               ; preds = %7
  %13 = landingpad { ptr, i32 }
          catch ptr null
  %14 = extractvalue { ptr, i32 } %13, 0
  call void @__clang_call_terminate(ptr %14) #28
  unreachable

_ZN11flatbuffers5NamerD2Ev.exit.i.i:              ; preds = %7
  %15 = getelementptr inbounds nuw i8, ptr %5, i64 136
  call void @_ZN11flatbuffers5Namer6ConfigD2Ev(ptr noundef nonnull align 8 dereferenceable(336) %15) #26
  store ptr getelementptr inbounds nuw inrange(-16, 32) (i8, ptr @_ZTVN11flatbuffers13BaseGeneratorE, i64 16), ptr %5, align 8, !tbaa !4
  %16 = getelementptr inbounds nuw i8, ptr %5, i64 96
  %17 = load ptr, ptr %16, align 8, !tbaa !7
  %18 = getelementptr inbounds nuw i8, ptr %5, i64 112
  %19 = icmp eq ptr %17, %18
  br i1 %19, label %_ZNKSt7__cxx1112basic_stringIcSt11char_traitsIcESaIcEE11_M_is_localEv.exit.thread.i.i.i.i.i, label %_ZNKSt7__cxx1112basic_stringIcSt11char_traitsIcESaIcEE11_M_is_localEv.exit.i.i.i.i.i

_ZNKSt7__cxx1112basic_stringIcSt11char_traitsIcESaIcEE11_M_is_localEv.exit.thread.i.i.i.i.i: ; preds = %_ZN11flatbuffers5NamerD2Ev.exit.i.i
  %20 = getelementptr inbounds nuw i8, ptr %5, i64 104
  %21 = load i64, ptr %20, align 8, !tbaa !14
  %22 = icmp ult i64 %21, 16
  call void @llvm.assume(i1 %22)
  br label %_ZNSt7__cxx1112basic_stringIcSt11char_traitsIcESaIcEED2Ev.exit.i.i.i

_ZNKSt7__cxx1112basic_stringIcSt11char_traitsIcESaIcEE11_M_is_localEv.exit.i.i.i.i.i: ; preds = %_ZN11flatbuffers5NamerD2Ev.exit.i.i
  %23 = load i64, ptr %18, align 8, !tbaa !15
  %24 = add i64 %23, 1
  call void @_ZdlPvm(ptr noundef %17, i64 noundef %24) #24
  br label %_ZNSt7__cxx1112basic_stringIcSt11char_traitsIcESaIcEED2Ev.exit.i.i.i

_ZNSt7__cxx1112basic_stringIcSt11char_traitsIcESaIcEED2Ev.exit.i.i.i: ; preds = %_ZNKSt7__cxx1112basic_stringIcSt11char_traitsIcESaIcEE11_M_is_localEv.exit.i.i.i.i.i, %_ZNKSt7__cxx1112basic_stringIcSt11char_traitsIcESaIcEE11_M_is_localEv.exit.thread.i.i.i.i.i
  %25 = getelementptr inbounds nuw i8, ptr %5, i64 64
  %26 = load ptr, ptr %25, align 8, !tbaa !7
  %27 = getelementptr inbounds nuw i8, ptr %5, i64 80
  %28 = icmp eq ptr %26, %27
  br i1 %28, label %_ZNKSt7__cxx1112basic_stringIcSt11char_traitsIcESaIcEE11_M_is_localEv.exit.thread.i.i2.i.i.i, label %_ZNKSt7__cxx1112basic_stringIcSt11char_traitsIcESaIcEE11_M_is_localEv.exit.i.i1.i.i.i

_ZNKSt7__cxx1112basic_stringIcSt11char_traitsIcESaIcEE11_M_is_localEv.exit.thread.i.i2.i.i.i: ; preds = %_ZNSt7__cxx1112basic_stringIcSt11char_traitsIcESaIcEED2Ev.exit.i.i.i
  %29 = getelementptr inbounds nuw i8, ptr %5, i64 72
  %30 = load i64, ptr %29, align 8, !tbaa !14
  %31 = icmp ult i64 %30, 16
  call void @llvm.assume(i1 %31)
  br label %_ZNSt7__cxx1112basic_stringIcSt11char_traitsIcESaIcEED2Ev.exit3.i.i.i

_ZNKSt7__cxx1112basic_stringIcSt11char_traitsIcESaIcEE11_M_is_localEv.exit.i.i1.i.i.i: ; preds = %_ZNSt7__cxx1112basic_stringIcSt11char_traitsIcESaIcEED2Ev.exit.i.i.i
  %32 = load i64, ptr %27, align 8, !tbaa !15
  %33 = add i64 %32, 1
  call void @_ZdlPvm(ptr noundef %26, i64 noundef %33) #24
  br label %_ZNSt7__cxx1112basic_stringIcSt11char_traitsIcESaIcEED2Ev.exit3.i.i.i

_ZNSt7__cxx1112basic_stringIcSt11char_traitsIcESaIcEED2Ev.exit3.i.i.i: ; preds = %_ZNKSt7__cxx1112basic_stringIcSt11char_traitsIcESaIcEE11_M_is_localEv.exit.i.i1.i.i.i, %_ZNKSt7__cxx1112basic_stringIcSt11char_traitsIcESaIcEE11_M_is_localEv.exit.thread.i.i2.i.i.i
  %34 = getelementptr inbounds nuw i8, ptr %5, i64 32
  %35 = load ptr, ptr %34, align 8, !tbaa !7
  %36 = getelementptr inbounds nuw i8, ptr %5, i64 48
  %37 = icmp eq ptr %35, %36
  br i1 %37, label %_ZNKSt7__cxx1112basic_stringIcSt11char_traitsIcESaIcEE11_M_is_localEv.exit.thread.i.i5.i.i.i, label %_ZNKSt7__cxx1112basic_stringIcSt11char_traitsIcESaIcEE11_M_is_localEv.exit.i.i4.i.i.i

_ZNKSt7__cxx1112basic_stringIcSt11char_traitsIcESaIcEE11_M_is_localEv.exit.thread.i.i5.i.i.i: ; preds = %_ZNSt7__cxx1112basic_stringIcSt11char_traitsIcESaIcEED2Ev.exit3.i.i.i
  %38 = getelementptr inbounds nuw i8, ptr %5, i64 40
  %39 = load i64, ptr %38, align 8, !tbaa !14
  %40 = icmp ult i64 %39, 16
  call void @llvm.assume(i1 %40)
  br label %_ZN11flatbuffersL17GenerateKotlinKMPERKNS_6ParserERKNSt7__cxx1112basic_stringIcSt11char_traitsIcESaIcEEESA_.exit

_ZNKSt7__cxx1112basic_stringIcSt11char_traitsIcESaIcEE11_M_is_localEv.exit.i.i4.i.i.i: ; preds = %_ZNSt7__cxx1112basic_stringIcSt11char_traitsIcESaIcEED2Ev.exit3.i.i.i
  %41 = load i64, ptr %36, align 8, !tbaa !15
  %42 = add i64 %41, 1
  call void @_ZdlPvm(ptr noundef %35, i64 noundef %42) #24
  br label %_ZN11flatbuffersL17GenerateKotlinKMPERKNS_6ParserERKNSt7__cxx1112basic_stringIcSt11char_traitsIcESaIcEEESA_.exit

43:                                               ; preds = %4
  %44 = landingpad { ptr, i32 }
          cleanup
  call void @_ZN11flatbuffers6kotlin18KotlinKMPGeneratorD2Ev(ptr noundef nonnull align 8 dereferenceable(520) %5) #26
  call void @llvm.lifetime.end.p0(i64 520, ptr nonnull %5) #26
  resume { ptr, i32 } %44

_ZN11flatbuffersL17GenerateKotlinKMPERKNS_6ParserERKNSt7__cxx1112basic_stringIcSt11char_traitsIcESaIcEEESA_.exit: ; preds = %_ZNKSt7__cxx1112basic_stringIcSt11char_traitsIcESaIcEE11_M_is_localEv.exit.thread.i.i5.i.i.i, %_ZNKSt7__cxx1112basic_stringIcSt11char_traitsIcESaIcEE11_M_is_localEv.exit.i.i4.i.i.i
  call void @llvm.lifetime.end.p0(i64 520, ptr nonnull %5) #26
  %not. = xor i1 %6, true
  %. = zext i1 %not. to i32
  ret i32 %.
}